target datalayout = "e-m:e-p270:32:32-p271:32:32-p272:64:64-i64:64-i128:128-f80:128-n8:16:32:64-S128"
target triple = "x86_64-pc-linux-gnu"

%struct.H5G_entry_t = type { i32, %union.H5G_cache_t, i64, i64 }
%union.H5G_cache_t = type { %struct.anon }
%struct.anon = type { i64, i64 }

@.str = private unnamed_addr constant [100 x i8] c"generated/home/dtcxzyw/WorkSpace/Projects/compilers/llvm-opt-benchmark/bench/hdf5/hdf5/src/H5Gent.c\00", align 1
@H5E_SYM_g = external global i64, align 8
@__func__.H5G__ent_encode_vec = private unnamed_addr constant [20 x i8] c"H5G__ent_encode_vec\00", align 1
@H5E_CANTENCODE_g = external global i64, align 8
@.str.5 = private unnamed_addr constant [13 x i8] c"can't encode\00", align 1

; Function Attrs: nounwind uwtable
define i32 @H5G__ent_encode_vec(ptr noundef %0, ptr noundef %1, ptr noundef %2, i32 noundef %3) #0 {
  %5 = alloca ptr, align 8
  %6 = alloca ptr, align 8
  %7 = alloca ptr, align 8
  %8 = alloca i32, align 4
  %9 = alloca i32, align 4
  %10 = alloca i32, align 4
  %11 = alloca i8, align 1
  store ptr %0, ptr %5, align 8
  store ptr %1, ptr %6, align 8
  store ptr %2, ptr %7, align 8
  store i32 %3, ptr %8, align 4
  store i32 0, ptr %10, align 4
  store i8 0, ptr %11, align 1
  store i32 0, ptr %9, align 4
  br label %12

12:                                               ; preds = %41, %4
  %13 = load i32, ptr %9, align 4
  %14 = load i32, ptr %8, align 4
  %15 = icmp ult i32 %13, %14
  br i1 %15, label %16, label %44

16:                                               ; preds = %12
  %17 = load ptr, ptr %5, align 8
  %18 = load ptr, ptr %6, align 8
  %19 = load ptr, ptr %7, align 8
  %20 = load i32, ptr %9, align 4
  %21 = zext i32 %20 to i64
  %22 = getelementptr inbounds %struct.H5G_entry_t, ptr %19, i64 %21
  %23 = call i32 @H5G_ent_encode(ptr noundef %17, ptr noundef %18, ptr noundef %22)
  %24 = icmp slt i32 %23, 0
  br i1 %24, label %25, label %40

25:                                               ; preds = %16
  br label %26

26:                                               ; preds = %25
  br label %27

27:                                               ; preds = %26
  br label %28

28:                                               ; preds = %27
  %29 = load i64, ptr @H5E_SYM_g, align 8
  %30 = load i64, ptr @H5E_CANTENCODE_g, align 8
  %31 = call i32 (ptr, ptr, i32, i64, i64, ptr, ...) @H5E_printf_stack(ptr noundef @.str, ptr noundef @__func__.H5G__ent_encode_vec, i32 noundef 199, i64 noundef %29, i64 noundef %30, ptr noundef @.str.5)
  br label %32

32:                                               ; preds = %28
  store i8 1, ptr %11, align 1
  %33 = load i8, ptr %11, align 1
  %34 = trunc i8 %33 to i1
  %35 = zext i1 %34 to i8
  store i8 %35, ptr %11, align 1
  br label %36

36:                                               ; preds = %32
  br label %37

37:                                               ; preds = %36
  store i32 -1, ptr %10, align 4
  br label %45

38:                                               ; No predecessors!
  br label %39

39:                                               ; preds = %38
  br label %40

40:                                               ; preds = %39, %16
  br label %41

41:                                               ; preds = %40
  %42 = load i32, ptr %9, align 4
  %43 = add i32 %42, 1
  store i32 %43, ptr %9, align 4
  br label %12

44:                                               ; preds = %12
  br label %45

45:                                               ; preds = %44, %37
  %46 = load i32, ptr %10, align 4
  ret i32 %46
}