; Function Attrs: nounwind uwtable
define range(i32 -1, 1) i32 @H5G__ent_encode_vec(ptr noundef %0, ptr noundef %1, ptr noundef %2, i32 noundef %3) local_unnamed_addr #0 {
  %.not = icmp eq i32 %3, 0
  br i1 %.not, label %.loopexit, label %.lr.ph.preheader

.lr.ph.preheader:                                 ; preds = %4
  %wide.trip.count = zext i32 %3 to i64
  br label %.lr.ph

5:                                                ; preds = %.lr.ph
  %indvars.iv.next = add nuw nsw i64 %indvars.iv, 1
  %exitcond.not = icmp eq i64 %indvars.iv.next, %wide.trip.count
  br i1 %exitcond.not, label %.loopexit, label %.lr.ph

.lr.ph:                                           ; preds = %.lr.ph.preheader, %5
  %indvars.iv = phi i64 [ 0, %.lr.ph.preheader ], [ %indvars.iv.next, %5 ]
  %6 = getelementptr inbounds %struct.H5G_entry_t, ptr %2, i64 %indvars.iv
  %7 = tail call i32 @H5G_ent_encode(ptr noundef %0, ptr noundef %1, ptr noundef %6)
  %8 = icmp slt i32 %7, 0
  br i1 %8, label %9, label %5

9:                                                ; preds = %.lr.ph
  %10 = load i64, ptr @H5E_SYM_g, align 8
  %11 = load i64, ptr @H5E_CANTENCODE_g, align 8
  %12 = tail call i32 (ptr, ptr, i32, i64, i64, ptr, ...) @H5E_printf_stack(ptr noundef nonnull @.str, ptr noundef nonnull @__func__.H5G__ent_encode_vec, i32 noundef 199, i64 noundef %10, i64 noundef %11, ptr noundef nonnull @.str.5) #9
  br label %.loopexit

.loopexit:                                        ; preds = %5, %4, %9
  %.0 = phi i32 [ -1, %9 ], [ 0, %4 ], [ 0, %5 ]
  ret i32 %.0
}